; ModuleID = '40/405.c'
source_filename = "40/405.c"
target datalayout = "e-m:e-p270:32:32-p271:32:32-p272:64:64-i64:64-f80:128-n8:16:32:64-S128"
target triple = "x86_64-pc-linux-gnu"

@.str = private unnamed_addr constant [4 x i8] c"%lf\00", align 1
@.str.1 = private unnamed_addr constant [7 x i8] c"%.4lf\0A\00", align 1
@.str.2 = private unnamed_addr constant [15 x i8] c"Invalid input\0A\00", align 1

; Function Attrs: noinline nounwind uwtable
define dso_local i32 @main(i32 %0, i8** %1) #0 {
  %3 = alloca i32, align 4
  %4 = alloca i32, align 4
  %5 = alloca i8**, align 8
  %6 = alloca double, align 8
  %7 = alloca double, align 8
  %8 = alloca double, align 8
  %9 = alloca double, align 8
  %10 = alloca double, align 8
  %11 = alloca double, align 8
  %12 = alloca double, align 8
  %13 = alloca double, align 8
  store i32 0, i32* %3, align 4
  store i32 %0, i32* %4, align 4
  store i8** %1, i8*** %5, align 8
  %14 = call i32 (i8*, ...) @__isoc99_scanf(i8* getelementptr inbounds ([4 x i8], [4 x i8]* @.str, i64 0, i64 0), double* %6)
  %15 = call i32 (i8*, ...) @__isoc99_scanf(i8* getelementptr inbounds ([4 x i8], [4 x i8]* @.str, i64 0, i64 0), double* %7)
  %16 = call i32 (i8*, ...) @__isoc99_scanf(i8* getelementptr inbounds ([4 x i8], [4 x i8]* @.str, i64 0, i64 0), double* %8)
  %17 = call i32 (i8*, ...) @__isoc99_scanf(i8* getelementptr inbounds ([4 x i8], [4 x i8]* @.str, i64 0, i64 0), double* %9)
  %18 = call i32 (i8*, ...) @__isoc99_scanf(i8* getelementptr inbounds ([4 x i8], [4 x i8]* @.str, i64 0, i64 0), double* %10)
  %19 = load double, double* %6, align 8
  %20 = load double, double* %7, align 8
  %21 = fadd double %19, %20
  %22 = load double, double* %8, align 8
  %23 = fadd double %21, %22
  %24 = load double, double* %9, align 8
  %25 = fadd double %23, %24
  %26 = fmul double 5.000000e-01, %25
  store double %26, double* %12, align 8
  %27 = load double, double* %10, align 8
  %28 = fmul double 5.000000e-01, %27
  %29 = fdiv double %28, 1.800000e+02
  %30 = fmul double %29, 0x400921FB4D12D84A
  store double %30, double* %11, align 8
  %31 = load double, double* %12, align 8
  %32 = load double, double* %6, align 8
  %33 = fsub double %31, %32
  %34 = load double, double* %12, align 8
  %35 = load double, double* %7, align 8
  %36 = fsub double %34, %35
  %37 = fmul double %33, %36
  %38 = load double, double* %12, align 8
  %39 = load double, double* %8, align 8
  %40 = fsub double %38, %39
  %41 = fmul double %37, %40
  %42 = load double, double* %12, align 8
  %43 = load double, double* %9, align 8
  %44 = fsub double %42, %43
  %45 = fmul double %41, %44
  %46 = load double, double* %6, align 8
  %47 = load double, double* %7, align 8
  %48 = fmul double %46, %47
  %49 = load double, double* %8, align 8
  %50 = fmul double %48, %49
  %51 = load double, double* %9, align 8
  %52 = fmul double %50, %51
  %53 = load double, double* %11, align 8
  %54 = call double @cos(double %53) #3
  %55 = fmul double %52, %54
  %56 = load double, double* %11, align 8
  %57 = call double @cos(double %56) #3
  %58 = fmul double %55, %57
  %59 = fsub double %45, %58
  %60 = fcmp oge double %59, 0.000000e+00
  br i1 %60, label %61, label %94

61:                                               ; preds = %2
  %62 = load double, double* %12, align 8
  %63 = load double, double* %6, align 8
  %64 = fsub double %62, %63
  %65 = load double, double* %12, align 8
  %66 = load double, double* %7, align 8
  %67 = fsub double %65, %66
  %68 = fmul double %64, %67
  %69 = load double, double* %12, align 8
  %70 = load double, double* %8, align 8
  %71 = fsub double %69, %70
  %72 = fmul double %68, %71
  %73 = load double, double* %12, align 8
  %74 = load double, double* %9, align 8
  %75 = fsub double %73, %74
  %76 = fmul double %72, %75
  %77 = load double, double* %6, align 8
  %78 = load double, double* %7, align 8
  %79 = fmul double %77, %78
  %80 = load double, double* %8, align 8
  %81 = fmul double %79, %80
  %82 = load double, double* %9, align 8
  %83 = fmul double %81, %82
  %84 = load double, double* %11, align 8
  %85 = call double @cos(double %84) #3
  %86 = fmul double %83, %85
  %87 = load double, double* %11, align 8
  %88 = call double @cos(double %87) #3
  %89 = fmul double %86, %88
  %90 = fsub double %76, %89
  %91 = call double @sqrt(double %90) #3
  store double %91, double* %13, align 8
  %92 = load double, double* %13, align 8
  %93 = call i32 (i8*, ...) @printf(i8* getelementptr inbounds ([7 x i8], [7 x i8]* @.str.1, i64 0, i64 0), double %92)
  br label %96

94:                                               ; preds = %2
  %95 = call i32 (i8*, ...) @printf(i8* getelementptr inbounds ([15 x i8], [15 x i8]* @.str.2, i64 0, i64 0))
  br label %96

96:                                               ; preds = %94, %61
  ret i32 0
}

declare dso_local i32 @__isoc99_scanf(i8*, ...) #1

; Function Attrs: nounwind
declare dso_local double @cos(double) #2

; Function Attrs: nounwind
declare dso_local double @sqrt(double) #2

declare dso_local i32 @printf(i8*, ...) #1


!llvm.module.flags = !{!0}
!llvm.ident = !{!1}

!0 = !{i32 1, !"wchar_size", i32 4}
!1 = !{!"clang version 10.0.0-4ubuntu1 "}
