; ModuleID = 'source-C-CXX/39/405.c'
source_filename = "source-C-CXX/39/405.c"
target datalayout = "e-m:e-p270:32:32-p271:32:32-p272:64:64-i64:64-f80:128-n8:16:32:64-S128"
target triple = "x86_64-pc-linux-gnu"

@.str = private unnamed_addr constant [4 x i8] c"%lf\00", align 1
@.str.1 = private unnamed_addr constant [7 x i8] c"%.4lf\0A\00", align 1
@str = private unnamed_addr constant [14 x i8] c"Invalid input\00", align 1

; Function Attrs: nofree nounwind sspstrong uwtable
define dso_local i32 @main(i32 %0, i8** nocapture readnone %1) local_unnamed_addr #0 {
  %3 = alloca double, align 8
  %4 = alloca double, align 8
  %5 = alloca double, align 8
  %6 = alloca double, align 8
  %7 = alloca double, align 8
  %8 = bitcast double* %3 to i8*
  call void @llvm.lifetime.start.p0i8(i64 8, i8* nonnull %8) #5
  %9 = bitcast double* %4 to i8*
  call void @llvm.lifetime.start.p0i8(i64 8, i8* nonnull %9) #5
  %10 = bitcast double* %5 to i8*
  call void @llvm.lifetime.start.p0i8(i64 8, i8* nonnull %10) #5
  %11 = bitcast double* %6 to i8*
  call void @llvm.lifetime.start.p0i8(i64 8, i8* nonnull %11) #5
  %12 = bitcast double* %7 to i8*
  call void @llvm.lifetime.start.p0i8(i64 8, i8* nonnull %12) #5
  %13 = call i32 (i8*, ...) @__isoc99_scanf(i8* getelementptr inbounds ([4 x i8], [4 x i8]* @.str, i64 0, i64 0), double* nonnull %3)
  %14 = call i32 (i8*, ...) @__isoc99_scanf(i8* getelementptr inbounds ([4 x i8], [4 x i8]* @.str, i64 0, i64 0), double* nonnull %4)
  %15 = call i32 (i8*, ...) @__isoc99_scanf(i8* getelementptr inbounds ([4 x i8], [4 x i8]* @.str, i64 0, i64 0), double* nonnull %5)
  %16 = call i32 (i8*, ...) @__isoc99_scanf(i8* getelementptr inbounds ([4 x i8], [4 x i8]* @.str, i64 0, i64 0), double* nonnull %6)
  %17 = call i32 (i8*, ...) @__isoc99_scanf(i8* getelementptr inbounds ([4 x i8], [4 x i8]* @.str, i64 0, i64 0), double* nonnull %7)
  %18 = load double, double* %3, align 8, !tbaa !5
  %19 = load double, double* %4, align 8, !tbaa !5
  %20 = fadd double %18, %19
  %21 = load double, double* %5, align 8, !tbaa !5
  %22 = fadd double %20, %21
  %23 = load double, double* %6, align 8, !tbaa !5
  %24 = fadd double %22, %23
  %25 = fmul double %24, 5.000000e-01
  %26 = load double, double* %7, align 8, !tbaa !5
  %27 = fmul double %26, 5.000000e-01
  %28 = fdiv double %27, 1.800000e+02
  %29 = fmul double %28, 0x400921FB4D12D84A
  %30 = fsub double %25, %18
  %31 = fsub double %25, %19
  %32 = fmul double %30, %31
  %33 = fsub double %25, %21
  %34 = fmul double %33, %32
  %35 = fsub double %25, %23
  %36 = fmul double %35, %34
  %37 = fmul double %18, %19
  %38 = fmul double %37, %21
  %39 = fmul double %38, %23
  %40 = call double @cos(double %29) #5
  %41 = fmul double %39, %40
  %42 = call double @cos(double %29) #5
  %43 = fmul double %41, %42
  %44 = fsub double %36, %43
  %45 = fcmp ult double %44, 0.000000e+00
  br i1 %45, label %68, label %46

46:                                               ; preds = %2
  %47 = load double, double* %3, align 8, !tbaa !5
  %48 = fsub double %25, %47
  %49 = load double, double* %4, align 8, !tbaa !5
  %50 = fsub double %25, %49
  %51 = fmul double %48, %50
  %52 = load double, double* %5, align 8, !tbaa !5
  %53 = fsub double %25, %52
  %54 = fmul double %51, %53
  %55 = load double, double* %6, align 8, !tbaa !5
  %56 = fsub double %25, %55
  %57 = fmul double %54, %56
  %58 = fmul double %47, %49
  %59 = fmul double %58, %52
  %60 = fmul double %59, %55
  %61 = call double @cos(double %29) #5
  %62 = fmul double %60, %61
  %63 = call double @cos(double %29) #5
  %64 = fmul double %62, %63
  %65 = fsub double %57, %64
  %66 = call double @sqrt(double %65) #5
  %67 = call i32 (i8*, ...) @printf(i8* nonnull dereferenceable(1) getelementptr inbounds ([7 x i8], [7 x i8]* @.str.1, i64 0, i64 0), double %66)
  br label %70

68:                                               ; preds = %2
  %69 = call i32 @puts(i8* nonnull dereferenceable(1) getelementptr inbounds ([14 x i8], [14 x i8]* @str, i64 0, i64 0))
  br label %70

70:                                               ; preds = %68, %46
  call void @llvm.lifetime.end.p0i8(i64 8, i8* nonnull %12) #5
  call void @llvm.lifetime.end.p0i8(i64 8, i8* nonnull %11) #5
  call void @llvm.lifetime.end.p0i8(i64 8, i8* nonnull %10) #5
  call void @llvm.lifetime.end.p0i8(i64 8, i8* nonnull %9) #5
  call void @llvm.lifetime.end.p0i8(i64 8, i8* nonnull %8) #5
  ret i32 0
}

; Function Attrs: argmemonly mustprogress nofree nosync nounwind willreturn
declare void @llvm.lifetime.start.p0i8(i64 immarg, i8* nocapture) #1

; Function Attrs: nofree nounwind
declare noundef i32 @__isoc99_scanf(i8* nocapture noundef readonly, ...) local_unnamed_addr #2

; Function Attrs: mustprogress nofree nounwind willreturn
declare double @cos(double) local_unnamed_addr #3

; Function Attrs: mustprogress nofree nounwind willreturn
declare double @sqrt(double) local_unnamed_addr #3

; Function Attrs: nofree nounwind
declare noundef i32 @printf(i8* nocapture noundef readonly, ...) local_unnamed_addr #2

; Function Attrs: argmemonly mustprogress nofree nosync nounwind willreturn
declare void @llvm.lifetime.end.p0i8(i64 immarg, i8* nocapture) #1

; Function Attrs: nofree nounwind
declare noundef i32 @puts(i8* nocapture noundef readonly) local_unnamed_addr #4


!llvm.module.flags = !{!0, !1, !2, !3}
!llvm.ident = !{!4}

!0 = !{i32 1, !"wchar_size", i32 4}
!1 = !{i32 7, !"PIC Level", i32 2}
!2 = !{i32 7, !"PIE Level", i32 2}
!3 = !{i32 7, !"uwtable", i32 1}
!4 = !{!"clang version 13.0.0"}
!5 = !{!6, !6, i64 0}
!6 = !{!"double", !7, i64 0}
!7 = !{!"omnipotent char", !8, i64 0}
!8 = !{!"Simple C/C++ TBAA"}
